target datalayout = "e-m:e-p270:32:32-p271:32:32-p272:64:64-i64:64-i128:128-f80:128-n8:16:32:64-S128"
target triple = "x86_64-pc-linux-gnu"

%struct.__va_list_tag = type { i32, i32, ptr, ptr }

@.str.142 = private unnamed_addr constant [2 x i8] c"\0A\00", align 1
@stderr = external global ptr, align 8
@_Py_FatalErrorFormat.reentrant = internal global i32 0, align 4
@.str.143 = private unnamed_addr constant [21 x i8] c"Fatal Python error: \00", align 1
@.str.144 = private unnamed_addr constant [3 x i8] c": \00", align 1

; Function Attrs: inlinehint noreturn nounwind uwtable
define internal void @fatal_error_exit(i32 noundef %0) #9 {
  %2 = alloca i32, align 4
  store i32 %0, ptr %2, align 4, !tbaa !4
  %3 = load i32, ptr %2, align 4, !tbaa !4
  %4 = icmp slt i32 %3, 0
  br i1 %4, label %5, label %6

5:                                                ; preds = %1
  call void @abort() #17
  unreachable

6:                                                ; preds = %1
  %7 = load i32, ptr %2, align 4, !tbaa !4
  call void @exit(i32 noundef %7) #17
  unreachable
}

; Function Attrs: noreturn nounwind uwtable
define hidden void @_Py_FatalErrorFormat(ptr noundef %0, ptr noundef %1, ...) #8 {
  %3 = alloca ptr, align 8
  %4 = alloca ptr, align 8
  %5 = alloca ptr, align 8
  %6 = alloca i32, align 4
  %7 = alloca [1 x %struct.__va_list_tag], align 16
  store ptr %0, ptr %3, align 8, !tbaa !180
  store ptr %1, ptr %4, align 8, !tbaa !180
  %8 = load i32, ptr @_Py_FatalErrorFormat.reentrant, align 4, !tbaa !4
  %9 = icmp ne i32 %8, 0
  br i1 %9, label %10, label %11

10:                                               ; preds = %2
  call void @fatal_error_exit(i32 noundef -1) #16
  unreachable

11:                                               ; preds = %2
  store i32 1, ptr @_Py_FatalErrorFormat.reentrant, align 4, !tbaa !4
  call void @llvm.lifetime.start.p0(i64 8, ptr %5) #14
  %12 = load ptr, ptr @stderr, align 8, !tbaa !189
  store ptr %12, ptr %5, align 8, !tbaa !189
  call void @llvm.lifetime.start.p0(i64 4, ptr %6) #14
  %13 = load ptr, ptr %5, align 8, !tbaa !189
  %14 = call i32 @fileno(ptr noundef %13) #14
  store i32 %14, ptr %6, align 4, !tbaa !4
  %15 = load i32, ptr %6, align 4, !tbaa !4
  %16 = call i64 @_Py_write_noraise(i32 noundef %15, ptr noundef @.str.143, i64 noundef 20)
  %17 = load ptr, ptr %3, align 8, !tbaa !180
  %18 = icmp ne ptr %17, null
  br i1 %18, label %19, label %29

19:                                               ; preds = %11
  %20 = load i32, ptr %6, align 4, !tbaa !4
  %21 = load ptr, ptr %3, align 8, !tbaa !180
  %22 = load ptr, ptr %3, align 8, !tbaa !180
  %23 = call i64 @strlen(ptr noundef %22) #15
  %24 = trunc i64 %23 to i32
  %25 = sext i32 %24 to i64
  %26 = call i64 @_Py_write_noraise(i32 noundef %20, ptr noundef %21, i64 noundef %25)
  %27 = load i32, ptr %6, align 4, !tbaa !4
  %28 = call i64 @_Py_write_noraise(i32 noundef %27, ptr noundef @.str.144, i64 noundef 2)
  br label %29

29:                                               ; preds = %19, %11
  call void @llvm.lifetime.start.p0(i64 24, ptr %7) #14
  %30 = getelementptr inbounds [1 x %struct.__va_list_tag], ptr %7, i64 0, i64 0
  call void @llvm.va_start.p0(ptr %30)
  %31 = load ptr, ptr %5, align 8, !tbaa !189
  %32 = load ptr, ptr %4, align 8, !tbaa !180
  %33 = getelementptr inbounds [1 x %struct.__va_list_tag], ptr %7, i64 0, i64 0
  %34 = call i32 @vfprintf(ptr noundef %31, ptr noundef %32, ptr noundef %33) #14
  %35 = getelementptr inbounds [1 x %struct.__va_list_tag], ptr %7, i64 0, i64 0
  call void @llvm.va_end.p0(ptr %35)
  %36 = load ptr, ptr %5, align 8, !tbaa !189
  %37 = call i32 @fputs(ptr noundef @.str.142, ptr noundef %36)
  %38 = load ptr, ptr %5, align 8, !tbaa !189
  %39 = call i32 @fflush(ptr noundef %38)
  %40 = load i32, ptr %6, align 4, !tbaa !4
  call void @fatal_error(i32 noundef %40, i32 noundef 0, ptr noundef null, ptr noundef null, i32 noundef -1) #16
  unreachable
}