; Function Attrs: noreturn nounwind uwtable
define hidden void @_Py_FatalErrorFormat(ptr noundef %0, ptr noundef readonly captures(none) %1, ...) local_unnamed_addr #11 {
  %3 = alloca [1 x %struct.__va_list_tag], align 16
  %.b = load i1, ptr @_Py_FatalErrorFormat.reentrant, align 4
  br i1 %.b, label %4, label %5

4:                                                ; preds = %2
  tail call void @abort() #28
  unreachable

5:                                                ; preds = %2
  store i1 true, ptr @_Py_FatalErrorFormat.reentrant, align 4
  %6 = load ptr, ptr @stderr, align 8, !tbaa !181
  %7 = tail call i32 @fileno(ptr noundef %6) #23
  %8 = tail call i64 @_Py_write_noraise(i32 noundef %7, ptr noundef nonnull @.str.143, i64 noundef 20) #23
  %.not = icmp eq ptr %0, null
  br i1 %.not, label %14, label %9

9:                                                ; preds = %5
  %10 = tail call i64 @strlen(ptr noundef nonnull dereferenceable(1) %0) #24
  %sext = shl i64 %10, 32
  %11 = ashr exact i64 %sext, 32
  %12 = tail call i64 @_Py_write_noraise(i32 noundef %7, ptr noundef nonnull %0, i64 noundef %11) #23
  %13 = tail call i64 @_Py_write_noraise(i32 noundef %7, ptr noundef nonnull @.str.144, i64 noundef 2) #23
  br label %14

14:                                               ; preds = %9, %5
  call void @llvm.lifetime.start.p0(i64 24, ptr nonnull %3) #23
  call void @llvm.va_start.p0(ptr nonnull %3)
  %15 = call i32 @vfprintf(ptr noundef %6, ptr noundef %1, ptr noundef nonnull %3) #26
  call void @llvm.va_end.p0(ptr nonnull %3)
  %fputc = call i32 @fputc(i32 10, ptr %6)
  %16 = call i32 @fflush(ptr noundef %6)
  call fastcc void @fatal_error(i32 noundef %7, i32 noundef 0, ptr noundef null, ptr noundef null, i32 noundef -1) #27
  unreachable
}